; Function Attrs: mustprogress uwtable
define dso_local noundef i32 @_ZN16b3GpuNarrowPhase12registerFaceERK9b3Vector3f(ptr noundef nonnull readonly align 8 captures(none) dereferenceable(56) %0, ptr noundef nonnull readonly align 16 captures(none) dereferenceable(16) %1, float noundef %2) local_unnamed_addr #12 align 2 {
  %4 = alloca %struct.b3GpuFace, align 16
  %5 = getelementptr inbounds nuw i8, ptr %0, i64 8
  %6 = load ptr, ptr %5, align 8, !tbaa !7
  %7 = getelementptr inbounds nuw i8, ptr %6, i64 248
  %8 = getelementptr inbounds nuw i8, ptr %6, i64 252
  %9 = load i32, ptr %8, align 4, !tbaa !140
  call void @llvm.lifetime.start.p0(i64 32, ptr nonnull %4) #18
  call void @llvm.memset.p0.i64(ptr noundef nonnull align 16 dereferenceable(32) %4, i8 0, i64 32, i1 false)
  %10 = call noundef nonnull align 16 dereferenceable(32) ptr @_ZN20b3AlignedObjectArrayI9b3GpuFaceE6expandERKS0_(ptr noundef nonnull align 8 dereferenceable(25) %7, ptr noundef nonnull align 16 dereferenceable(32) %4)
  call void @llvm.lifetime.end.p0(i64 32, ptr nonnull %4) #18
  %11 = load <4 x float>, ptr %1, align 16
  %.sroa.3.12.vec.insert6.i = shufflevector <4 x float> %11, <4 x float> poison, <2 x i32> <i32 2, i32 poison>
  %.sroa.0.4.vec.insert.i = shufflevector <4 x float> %11, <4 x float> poison, <2 x i32> <i32 0, i32 1>
  %.sroa.3.12.vec.insert.i = insertelement <2 x float> %.sroa.3.12.vec.insert6.i, float %2, i64 1
  store <2 x float> %.sroa.0.4.vec.insert.i, ptr %10, align 16
  %.sroa.4.0..sroa_idx = getelementptr inbounds nuw i8, ptr %10, i64 8
  store <2 x float> %.sroa.3.12.vec.insert.i, ptr %.sroa.4.0..sroa_idx, align 8, !tbaa !124
  ret i32 %9
}